target datalayout = "e-m:e-p270:32:32-p271:32:32-p272:64:64-i64:64-i128:128-f80:128-n8:16:32:64-S128"
target triple = "x86_64-pc-linux-gnu"

%struct.AVBPrint = type { ptr, i32, i32, i32, [1 x i8], [1000 x i8] }

@json_escape_str.json_escape = internal constant [8 x i8] c"\22\\\08\0C\0A\0D\09\00", align 1
@json_escape_str.json_subst = internal constant [8 x i8] c"\22\\bfnrt\00", align 1
@.str.17 = private unnamed_addr constant [43 x i8] c"Cannot escape NULL string, returning NULL\0A\00", align 1
@.str.18 = private unnamed_addr constant [9 x i8] c"\\u00%02x\00", align 1

; Function Attrs: nounwind uwtable
define internal ptr @json_escape_str(ptr noundef %0, ptr noundef %1, ptr noundef %2) #1 {
  %4 = alloca ptr, align 8
  %5 = alloca ptr, align 8
  %6 = alloca ptr, align 8
  %7 = alloca ptr, align 8
  %8 = alloca ptr, align 8
  %9 = alloca i32, align 4
  %10 = alloca ptr, align 8
  store ptr %0, ptr %5, align 8, !tbaa !44
  store ptr %1, ptr %6, align 8, !tbaa !35
  store ptr %2, ptr %7, align 8, !tbaa !24
  call void @llvm.lifetime.start.p0(i64 8, ptr %8) #7
  %11 = load ptr, ptr %6, align 8, !tbaa !35
  %12 = icmp ne ptr %11, null
  br i1 %12, label %15, label %13

13:                                               ; preds = %3
  %14 = load ptr, ptr %7, align 8, !tbaa !24
  call void (ptr, i32, ptr, ...) @av_log(ptr noundef %14, i32 noundef 24, ptr noundef @.str.17)
  store ptr null, ptr %4, align 8
  store i32 1, ptr %9, align 4
  br label %59

15:                                               ; preds = %3
  %16 = load ptr, ptr %6, align 8, !tbaa !35
  store ptr %16, ptr %8, align 8, !tbaa !35
  br label %17

17:                                               ; preds = %52, %15
  %18 = load ptr, ptr %8, align 8, !tbaa !35
  %19 = load i8, ptr %18, align 1, !tbaa !46
  %20 = icmp ne i8 %19, 0
  br i1 %20, label %21, label %55

21:                                               ; preds = %17
  call void @llvm.lifetime.start.p0(i64 8, ptr %10) #7
  %22 = load ptr, ptr %8, align 8, !tbaa !35
  %23 = load i8, ptr %22, align 1, !tbaa !46
  %24 = sext i8 %23 to i32
  %25 = call ptr @strchr(ptr noundef @json_escape_str.json_escape, i32 noundef %24) #8
  store ptr %25, ptr %10, align 8, !tbaa !35
  %26 = load ptr, ptr %10, align 8, !tbaa !35
  %27 = icmp ne ptr %26, null
  br i1 %27, label %28, label %36

28:                                               ; preds = %21
  %29 = load ptr, ptr %5, align 8, !tbaa !44
  call void @av_bprint_chars(ptr noundef %29, i8 noundef signext 92, i32 noundef 1)
  %30 = load ptr, ptr %5, align 8, !tbaa !44
  %31 = load ptr, ptr %10, align 8, !tbaa !35
  %32 = ptrtoint ptr %31 to i64
  %33 = sub i64 %32, ptrtoint (ptr @json_escape_str.json_escape to i64)
  %34 = getelementptr inbounds [8 x i8], ptr @json_escape_str.json_subst, i64 0, i64 %33
  %35 = load i8, ptr %34, align 1, !tbaa !46
  call void @av_bprint_chars(ptr noundef %30, i8 noundef signext %35, i32 noundef 1)
  br label %51

36:                                               ; preds = %21
  %37 = load ptr, ptr %8, align 8, !tbaa !35
  %38 = load i8, ptr %37, align 1, !tbaa !46
  %39 = zext i8 %38 to i32
  %40 = icmp slt i32 %39, 32
  br i1 %40, label %41, label %46

41:                                               ; preds = %36
  %42 = load ptr, ptr %5, align 8, !tbaa !44
  %43 = load ptr, ptr %8, align 8, !tbaa !35
  %44 = load i8, ptr %43, align 1, !tbaa !46
  %45 = zext i8 %44 to i32
  call void (ptr, ptr, ...) @av_bprintf(ptr noundef %42, ptr noundef @.str.18, i32 noundef %45)
  br label %50

46:                                               ; preds = %36
  %47 = load ptr, ptr %5, align 8, !tbaa !44
  %48 = load ptr, ptr %8, align 8, !tbaa !35
  %49 = load i8, ptr %48, align 1, !tbaa !46
  call void @av_bprint_chars(ptr noundef %47, i8 noundef signext %49, i32 noundef 1)
  br label %50

50:                                               ; preds = %46, %41
  br label %51

51:                                               ; preds = %50, %28
  call void @llvm.lifetime.end.p0(i64 8, ptr %10) #7
  br label %52

52:                                               ; preds = %51
  %53 = load ptr, ptr %8, align 8, !tbaa !35
  %54 = getelementptr inbounds nuw i8, ptr %53, i32 1
  store ptr %54, ptr %8, align 8, !tbaa !35
  br label %17, !llvm.loop !47

55:                                               ; preds = %17
  %56 = load ptr, ptr %5, align 8, !tbaa !44
  %57 = getelementptr inbounds nuw %struct.AVBPrint, ptr %56, i32 0, i32 0
  %58 = load ptr, ptr %57, align 8, !tbaa !33
  store ptr %58, ptr %4, align 8
  store i32 1, ptr %9, align 4
  br label %59

59:                                               ; preds = %55, %13
  call void @llvm.lifetime.end.p0(i64 8, ptr %8) #7
  %60 = load ptr, ptr %4, align 8
  ret ptr %60
}