; Function Attrs: nounwind uwtable
define internal fastcc ptr @json_escape_str(ptr noundef nonnull %0, ptr noundef readonly captures(address_is_null) %1, ptr noundef %2) unnamed_addr #1 {
  %.not = icmp eq ptr %1, null
  br i1 %.not, label %5, label %.preheader

.preheader:                                       ; preds = %3
  %4 = load i8, ptr %1, align 1, !tbaa !37
  %.not2224 = icmp eq i8 %4, 0
  br i1 %.not2224, label %._crit_edge, label %.lr.ph

5:                                                ; preds = %3
  tail call void (ptr, i32, ptr, ...) @av_log(ptr noundef %2, i32 noundef 24, ptr noundef nonnull @.str.17) #7
  br label %22

.lr.ph:                                           ; preds = %.preheader, %18
  %6 = phi i8 [ %20, %18 ], [ %4, %.preheader ]
  %.01725 = phi ptr [ %19, %18 ], [ %1, %.preheader ]
  %7 = sext i8 %6 to i32
  %memchr = tail call ptr @memchr(ptr noundef nonnull dereferenceable(1) @json_escape_str.json_escape, i32 %7, i64 8)
  %.not23 = icmp eq ptr %memchr, null
  br i1 %.not23, label %13, label %8

8:                                                ; preds = %.lr.ph
  tail call void @av_bprint_chars(ptr noundef nonnull %0, i8 noundef signext 92, i32 noundef 1) #7
  %9 = ptrtoint ptr %memchr to i64
  %10 = sub i64 %9, ptrtoint (ptr @json_escape_str.json_escape to i64)
  %11 = getelementptr inbounds [8 x i8], ptr @json_escape_str.json_subst, i64 0, i64 %10
  %12 = load i8, ptr %11, align 1, !tbaa !37
  tail call void @av_bprint_chars(ptr noundef nonnull %0, i8 noundef signext %12, i32 noundef 1) #7
  br label %18

13:                                               ; preds = %.lr.ph
  %14 = icmp ult i8 %6, 32
  br i1 %14, label %15, label %17

15:                                               ; preds = %13
  %16 = zext nneg i8 %6 to i32
  tail call void (ptr, ptr, ...) @av_bprintf(ptr noundef nonnull %0, ptr noundef nonnull @.str.18, i32 noundef %16) #7
  br label %18

17:                                               ; preds = %13
  tail call void @av_bprint_chars(ptr noundef nonnull %0, i8 noundef signext %6, i32 noundef 1) #7
  br label %18

18:                                               ; preds = %15, %17, %8
  %19 = getelementptr inbounds nuw i8, ptr %.01725, i64 1
  %20 = load i8, ptr %19, align 1, !tbaa !37
  %.not22 = icmp eq i8 %20, 0
  br i1 %.not22, label %._crit_edge, label %.lr.ph, !llvm.loop !38

._crit_edge:                                      ; preds = %18, %.preheader
  %21 = load ptr, ptr %0, align 8, !tbaa !34
  br label %22

22:                                               ; preds = %._crit_edge, %5
  %.0 = phi ptr [ %21, %._crit_edge ], [ null, %5 ]
  ret ptr %.0
}